target datalayout = "e-m:e-p270:32:32-p271:32:32-p272:64:64-i64:64-i128:128-f80:128-n8:16:32:64-S128"
target triple = "x86_64-pc-linux-gnu"

%struct.G2MContext = type { %struct.ePICContext, %struct.JPGContext, i32, i32, i32, i32, i32, i32, i32, i32, i32, i32, i32, i32, i32, i32, ptr, i32, i32, ptr, ptr, ptr, ptr, i32, i32, i32, i32, i32, ptr, ptr, ptr, i32, i32, i32, i32, i32, i32, i32, i32, [8 x i8] }
%struct.ePICContext = type { %struct.ElsDecCtx, i32, %struct.ElsUnsignedRung, i8, i8, [256 x i8], [512 x i8], [256 x i8], [256 x i8], [14 x i8], [14 x i8], i8, i32, [1024 x i32], %struct.ePICPixHash }
%struct.ElsDecCtx = type { ptr, i32, i64, i32, i32, i32, i32 }
%struct.ElsUnsignedRung = type { [11 x i8], ptr, i64, i16 }
%struct.ePICPixHash = type { [256 x ptr], [256 x i32], [256 x i32] }
%struct.JPGContext = type { %struct.BlockDSPContext, %struct.IDCTDSPContext, [64 x i8], [2 x %struct.VLC], [2 x %struct.VLC], [3 x i32], [12 x i8], [6 x [64 x i16]], ptr, [8 x i8] }
%struct.BlockDSPContext = type { ptr, ptr, [2 x ptr] }
%struct.IDCTDSPContext = type { ptr, ptr, ptr, ptr, ptr, ptr, [64 x i8], i32, i32 }
%struct.VLC = type { i32, ptr, i32, i32 }

; Function Attrs: nounwind uwtable
define internal void @g2m_paint_cursor(ptr noundef %0, ptr noundef %1, i32 noundef %2) #1 {
  %4 = alloca ptr, align 8
  %5 = alloca ptr, align 8
  %6 = alloca i32, align 4
  %7 = alloca i32, align 4
  %8 = alloca i32, align 4
  %9 = alloca i32, align 4
  %10 = alloca i32, align 4
  %11 = alloca i32, align 4
  %12 = alloca i32, align 4
  %13 = alloca ptr, align 8
  %14 = alloca i32, align 4
  %15 = alloca i8, align 1
  store ptr %0, ptr %4, align 8, !tbaa !29
  store ptr %1, ptr %5, align 8, !tbaa !54
  store i32 %2, ptr %6, align 4, !tbaa !31
  call void @llvm.lifetime.start.p0(i64 4, ptr %7) #12
  call void @llvm.lifetime.start.p0(i64 4, ptr %8) #12
  call void @llvm.lifetime.start.p0(i64 4, ptr %9) #12
  call void @llvm.lifetime.start.p0(i64 4, ptr %10) #12
  call void @llvm.lifetime.start.p0(i64 4, ptr %11) #12
  call void @llvm.lifetime.start.p0(i64 4, ptr %12) #12
  call void @llvm.lifetime.start.p0(i64 8, ptr %13) #12
  %16 = load ptr, ptr %4, align 8, !tbaa !29
  %17 = getelementptr inbounds nuw %struct.G2MContext, ptr %16, i32 0, i32 30
  %18 = load ptr, ptr %17, align 16, !tbaa !125
  %19 = icmp ne ptr %18, null
  br i1 %19, label %21, label %20

20:                                               ; preds = %3
  store i32 1, ptr %14, align 4
  br label %256

21:                                               ; preds = %3
  %22 = load ptr, ptr %4, align 8, !tbaa !29
  %23 = getelementptr inbounds nuw %struct.G2MContext, ptr %22, i32 0, i32 35
  %24 = load i32, ptr %23, align 8, !tbaa !70
  %25 = load ptr, ptr %4, align 8, !tbaa !29
  %26 = getelementptr inbounds nuw %struct.G2MContext, ptr %25, i32 0, i32 37
  %27 = load i32, ptr %26, align 16, !tbaa !121
  %28 = sub nsw i32 %24, %27
  store i32 %28, ptr %9, align 4, !tbaa !31
  %29 = load ptr, ptr %4, align 8, !tbaa !29
  %30 = getelementptr inbounds nuw %struct.G2MContext, ptr %29, i32 0, i32 36
  %31 = load i32, ptr %30, align 4, !tbaa !71
  %32 = load ptr, ptr %4, align 8, !tbaa !29
  %33 = getelementptr inbounds nuw %struct.G2MContext, ptr %32, i32 0, i32 38
  %34 = load i32, ptr %33, align 4, !tbaa !122
  %35 = sub nsw i32 %31, %34
  store i32 %35, ptr %10, align 4, !tbaa !31
  %36 = load ptr, ptr %4, align 8, !tbaa !29
  %37 = getelementptr inbounds nuw %struct.G2MContext, ptr %36, i32 0, i32 30
  %38 = load ptr, ptr %37, align 16, !tbaa !125
  store ptr %38, ptr %13, align 8, !tbaa !54
  %39 = load ptr, ptr %4, align 8, !tbaa !29
  %40 = getelementptr inbounds nuw %struct.G2MContext, ptr %39, i32 0, i32 33
  %41 = load i32, ptr %40, align 16, !tbaa !119
  store i32 %41, ptr %11, align 4, !tbaa !31
  %42 = load ptr, ptr %4, align 8, !tbaa !29
  %43 = getelementptr inbounds nuw %struct.G2MContext, ptr %42, i32 0, i32 34
  %44 = load i32, ptr %43, align 4, !tbaa !120
  store i32 %44, ptr %12, align 4, !tbaa !31
  %45 = load i32, ptr %9, align 4, !tbaa !31
  %46 = load i32, ptr %11, align 4, !tbaa !31
  %47 = add nsw i32 %45, %46
  %48 = load ptr, ptr %4, align 8, !tbaa !29
  %49 = getelementptr inbounds nuw %struct.G2MContext, ptr %48, i32 0, i32 4
  %50 = load i32, ptr %49, align 8, !tbaa !58
  %51 = icmp sgt i32 %47, %50
  br i1 %51, label %52, label %58

52:                                               ; preds = %21
  %53 = load ptr, ptr %4, align 8, !tbaa !29
  %54 = getelementptr inbounds nuw %struct.G2MContext, ptr %53, i32 0, i32 4
  %55 = load i32, ptr %54, align 8, !tbaa !58
  %56 = load i32, ptr %9, align 4, !tbaa !31
  %57 = sub nsw i32 %55, %56
  store i32 %57, ptr %11, align 4, !tbaa !31
  br label %58

58:                                               ; preds = %52, %21
  %59 = load i32, ptr %10, align 4, !tbaa !31
  %60 = load i32, ptr %12, align 4, !tbaa !31
  %61 = add nsw i32 %59, %60
  %62 = load ptr, ptr %4, align 8, !tbaa !29
  %63 = getelementptr inbounds nuw %struct.G2MContext, ptr %62, i32 0, i32 5
  %64 = load i32, ptr %63, align 4, !tbaa !59
  %65 = icmp sgt i32 %61, %64
  br i1 %65, label %66, label %72

66:                                               ; preds = %58
  %67 = load ptr, ptr %4, align 8, !tbaa !29
  %68 = getelementptr inbounds nuw %struct.G2MContext, ptr %67, i32 0, i32 5
  %69 = load i32, ptr %68, align 4, !tbaa !59
  %70 = load i32, ptr %10, align 4, !tbaa !31
  %71 = sub nsw i32 %69, %70
  store i32 %71, ptr %12, align 4, !tbaa !31
  br label %72

72:                                               ; preds = %66, %58
  %73 = load i32, ptr %9, align 4, !tbaa !31
  %74 = icmp slt i32 %73, 0
  br i1 %74, label %75, label %85

75:                                               ; preds = %72
  %76 = load i32, ptr %9, align 4, !tbaa !31
  %77 = load i32, ptr %11, align 4, !tbaa !31
  %78 = add nsw i32 %77, %76
  store i32 %78, ptr %11, align 4, !tbaa !31
  %79 = load i32, ptr %9, align 4, !tbaa !31
  %80 = sub nsw i32 0, %79
  %81 = mul nsw i32 %80, 4
  %82 = load ptr, ptr %13, align 8, !tbaa !54
  %83 = sext i32 %81 to i64
  %84 = getelementptr inbounds i8, ptr %82, i64 %83
  store ptr %84, ptr %13, align 8, !tbaa !54
  br label %91

85:                                               ; preds = %72
  %86 = load i32, ptr %9, align 4, !tbaa !31
  %87 = mul nsw i32 %86, 3
  %88 = load ptr, ptr %5, align 8, !tbaa !54
  %89 = sext i32 %87 to i64
  %90 = getelementptr inbounds i8, ptr %88, i64 %89
  store ptr %90, ptr %5, align 8, !tbaa !54
  br label %91

91:                                               ; preds = %85, %75
  %92 = load i32, ptr %10, align 4, !tbaa !31
  %93 = icmp slt i32 %92, 0
  br i1 %93, label %94, label %98

94:                                               ; preds = %91
  %95 = load i32, ptr %10, align 4, !tbaa !31
  %96 = load i32, ptr %12, align 4, !tbaa !31
  %97 = add nsw i32 %96, %95
  store i32 %97, ptr %12, align 4, !tbaa !31
  br label %98

98:                                               ; preds = %94, %91
  %99 = load i32, ptr %11, align 4, !tbaa !31
  %100 = icmp slt i32 %99, 0
  br i1 %100, label %104, label %101

101:                                              ; preds = %98
  %102 = load i32, ptr %12, align 4, !tbaa !31
  %103 = icmp slt i32 %102, 0
  br i1 %103, label %104, label %105

104:                                              ; preds = %101, %98
  store i32 1, ptr %14, align 4
  br label %256

105:                                              ; preds = %101
  %106 = load i32, ptr %10, align 4, !tbaa !31
  %107 = icmp slt i32 %106, 0
  br i1 %107, label %108, label %118

108:                                              ; preds = %105
  %109 = load i32, ptr %10, align 4, !tbaa !31
  %110 = sub nsw i32 0, %109
  %111 = load ptr, ptr %4, align 8, !tbaa !29
  %112 = getelementptr inbounds nuw %struct.G2MContext, ptr %111, i32 0, i32 31
  %113 = load i32, ptr %112, align 8, !tbaa !124
  %114 = mul nsw i32 %110, %113
  %115 = load ptr, ptr %13, align 8, !tbaa !54
  %116 = sext i32 %114 to i64
  %117 = getelementptr inbounds i8, ptr %115, i64 %116
  store ptr %117, ptr %13, align 8, !tbaa !54
  br label %125

118:                                              ; preds = %105
  %119 = load i32, ptr %10, align 4, !tbaa !31
  %120 = load i32, ptr %6, align 4, !tbaa !31
  %121 = mul nsw i32 %119, %120
  %122 = load ptr, ptr %5, align 8, !tbaa !54
  %123 = sext i32 %121 to i64
  %124 = getelementptr inbounds i8, ptr %122, i64 %123
  store ptr %124, ptr %5, align 8, !tbaa !54
  br label %125

125:                                              ; preds = %118, %108
  store i32 0, ptr %8, align 4, !tbaa !31
  br label %126

126:                                              ; preds = %252, %125
  %127 = load i32, ptr %8, align 4, !tbaa !31
  %128 = load i32, ptr %12, align 4, !tbaa !31
  %129 = icmp slt i32 %127, %128
  br i1 %129, label %130, label %255

130:                                              ; preds = %126
  store i32 0, ptr %7, align 4, !tbaa !31
  br label %131

131:                                              ; preds = %238, %130
  %132 = load i32, ptr %7, align 4, !tbaa !31
  %133 = load i32, ptr %11, align 4, !tbaa !31
  %134 = icmp slt i32 %132, %133
  br i1 %134, label %135, label %241

135:                                              ; preds = %131
  call void @llvm.lifetime.start.p0(i64 1, ptr %15) #12
  %136 = load ptr, ptr %13, align 8, !tbaa !54
  %137 = load i32, ptr %7, align 4, !tbaa !31
  %138 = mul nsw i32 %137, 4
  %139 = sext i32 %138 to i64
  %140 = getelementptr inbounds i8, ptr %136, i64 %139
  %141 = load i8, ptr %140, align 1, !tbaa !102
  store i8 %141, ptr %15, align 1, !tbaa !102
  %142 = load ptr, ptr %5, align 8, !tbaa !54
  %143 = load i32, ptr %7, align 4, !tbaa !31
  %144 = mul nsw i32 %143, 3
  %145 = add nsw i32 %144, 0
  %146 = sext i32 %145 to i64
  %147 = getelementptr inbounds i8, ptr %142, i64 %146
  %148 = load i8, ptr %147, align 1, !tbaa !102
  %149 = zext i8 %148 to i32
  %150 = load i8, ptr %15, align 1, !tbaa !102
  %151 = zext i8 %150 to i32
  %152 = sub nsw i32 256, %151
  %153 = mul nsw i32 %149, %152
  %154 = load ptr, ptr %13, align 8, !tbaa !54
  %155 = load i32, ptr %7, align 4, !tbaa !31
  %156 = mul nsw i32 %155, 4
  %157 = add nsw i32 %156, 1
  %158 = sext i32 %157 to i64
  %159 = getelementptr inbounds i8, ptr %154, i64 %158
  %160 = load i8, ptr %159, align 1, !tbaa !102
  %161 = zext i8 %160 to i32
  %162 = load i8, ptr %15, align 1, !tbaa !102
  %163 = zext i8 %162 to i32
  %164 = mul nsw i32 %161, %163
  %165 = add nsw i32 %153, %164
  %166 = ashr i32 %165, 8
  %167 = trunc i32 %166 to i8
  %168 = load ptr, ptr %5, align 8, !tbaa !54
  %169 = load i32, ptr %7, align 4, !tbaa !31
  %170 = mul nsw i32 %169, 3
  %171 = add nsw i32 %170, 0
  %172 = sext i32 %171 to i64
  %173 = getelementptr inbounds i8, ptr %168, i64 %172
  store i8 %167, ptr %173, align 1, !tbaa !102
  %174 = load ptr, ptr %5, align 8, !tbaa !54
  %175 = load i32, ptr %7, align 4, !tbaa !31
  %176 = mul nsw i32 %175, 3
  %177 = add nsw i32 %176, 1
  %178 = sext i32 %177 to i64
  %179 = getelementptr inbounds i8, ptr %174, i64 %178
  %180 = load i8, ptr %179, align 1, !tbaa !102
  %181 = zext i8 %180 to i32
  %182 = load i8, ptr %15, align 1, !tbaa !102
  %183 = zext i8 %182 to i32
  %184 = sub nsw i32 256, %183
  %185 = mul nsw i32 %181, %184
  %186 = load ptr, ptr %13, align 8, !tbaa !54
  %187 = load i32, ptr %7, align 4, !tbaa !31
  %188 = mul nsw i32 %187, 4
  %189 = add nsw i32 %188, 2
  %190 = sext i32 %189 to i64
  %191 = getelementptr inbounds i8, ptr %186, i64 %190
  %192 = load i8, ptr %191, align 1, !tbaa !102
  %193 = zext i8 %192 to i32
  %194 = load i8, ptr %15, align 1, !tbaa !102
  %195 = zext i8 %194 to i32
  %196 = mul nsw i32 %193, %195
  %197 = add nsw i32 %185, %196
  %198 = ashr i32 %197, 8
  %199 = trunc i32 %198 to i8
  %200 = load ptr, ptr %5, align 8, !tbaa !54
  %201 = load i32, ptr %7, align 4, !tbaa !31
  %202 = mul nsw i32 %201, 3
  %203 = add nsw i32 %202, 1
  %204 = sext i32 %203 to i64
  %205 = getelementptr inbounds i8, ptr %200, i64 %204
  store i8 %199, ptr %205, align 1, !tbaa !102
  %206 = load ptr, ptr %5, align 8, !tbaa !54
  %207 = load i32, ptr %7, align 4, !tbaa !31
  %208 = mul nsw i32 %207, 3
  %209 = add nsw i32 %208, 2
  %210 = sext i32 %209 to i64
  %211 = getelementptr inbounds i8, ptr %206, i64 %210
  %212 = load i8, ptr %211, align 1, !tbaa !102
  %213 = zext i8 %212 to i32
  %214 = load i8, ptr %15, align 1, !tbaa !102
  %215 = zext i8 %214 to i32
  %216 = sub nsw i32 256, %215
  %217 = mul nsw i32 %213, %216
  %218 = load ptr, ptr %13, align 8, !tbaa !54
  %219 = load i32, ptr %7, align 4, !tbaa !31
  %220 = mul nsw i32 %219, 4
  %221 = add nsw i32 %220, 3
  %222 = sext i32 %221 to i64
  %223 = getelementptr inbounds i8, ptr %218, i64 %222
  %224 = load i8, ptr %223, align 1, !tbaa !102
  %225 = zext i8 %224 to i32
  %226 = load i8, ptr %15, align 1, !tbaa !102
  %227 = zext i8 %226 to i32
  %228 = mul nsw i32 %225, %227
  %229 = add nsw i32 %217, %228
  %230 = ashr i32 %229, 8
  %231 = trunc i32 %230 to i8
  %232 = load ptr, ptr %5, align 8, !tbaa !54
  %233 = load i32, ptr %7, align 4, !tbaa !31
  %234 = mul nsw i32 %233, 3
  %235 = add nsw i32 %234, 2
  %236 = sext i32 %235 to i64
  %237 = getelementptr inbounds i8, ptr %232, i64 %236
  store i8 %231, ptr %237, align 1, !tbaa !102
  call void @llvm.lifetime.end.p0(i64 1, ptr %15) #12
  br label %238

238:                                              ; preds = %135
  %239 = load i32, ptr %7, align 4, !tbaa !31
  %240 = add nsw i32 %239, 1
  store i32 %240, ptr %7, align 4, !tbaa !31
  br label %131, !llvm.loop !134

241:                                              ; preds = %131
  %242 = load i32, ptr %6, align 4, !tbaa !31
  %243 = load ptr, ptr %5, align 8, !tbaa !54
  %244 = sext i32 %242 to i64
  %245 = getelementptr inbounds i8, ptr %243, i64 %244
  store ptr %245, ptr %5, align 8, !tbaa !54
  %246 = load ptr, ptr %4, align 8, !tbaa !29
  %247 = getelementptr inbounds nuw %struct.G2MContext, ptr %246, i32 0, i32 31
  %248 = load i32, ptr %247, align 8, !tbaa !124
  %249 = load ptr, ptr %13, align 8, !tbaa !54
  %250 = sext i32 %248 to i64
  %251 = getelementptr inbounds i8, ptr %249, i64 %250
  store ptr %251, ptr %13, align 8, !tbaa !54
  br label %252

252:                                              ; preds = %241
  %253 = load i32, ptr %8, align 4, !tbaa !31
  %254 = add nsw i32 %253, 1
  store i32 %254, ptr %8, align 4, !tbaa !31
  br label %126, !llvm.loop !135

255:                                              ; preds = %126
  store i32 0, ptr %14, align 4
  br label %256

256:                                              ; preds = %255, %104, %20
  call void @llvm.lifetime.end.p0(i64 8, ptr %13) #12
  call void @llvm.lifetime.end.p0(i64 4, ptr %12) #12
  call void @llvm.lifetime.end.p0(i64 4, ptr %11) #12
  call void @llvm.lifetime.end.p0(i64 4, ptr %10) #12
  call void @llvm.lifetime.end.p0(i64 4, ptr %9) #12
  call void @llvm.lifetime.end.p0(i64 4, ptr %8) #12
  call void @llvm.lifetime.end.p0(i64 4, ptr %7) #12
  %257 = load i32, ptr %14, align 4
  switch i32 %257, label %259 [
    i32 0, label %258
    i32 1, label %258
  ]

258:                                              ; preds = %256, %256
  ret void

259:                                              ; preds = %256
  unreachable
}