; Function Attrs: nofree norecurse nosync nounwind memory(read, argmem: readwrite, inaccessiblemem: none) uwtable
define internal fastcc void @g2m_paint_cursor(ptr noundef readonly captures(none) %0, ptr noundef captures(none) %1, i32 noundef %2) unnamed_addr #5 {
  %4 = getelementptr inbounds nuw i8, ptr %0, i64 10864
  %5 = load ptr, ptr %4, align 16, !tbaa !79
  %.not = icmp eq ptr %5, null
  br i1 %.not, label %.loopexit, label %6

6:                                                ; preds = %3
  %7 = getelementptr inbounds nuw i8, ptr %0, i64 10888
  %8 = load i32, ptr %7, align 8, !tbaa !71
  %9 = getelementptr inbounds nuw i8, ptr %0, i64 10896
  %10 = load i32, ptr %9, align 16, !tbaa !75
  %11 = sub nsw i32 %8, %10
  %12 = getelementptr inbounds nuw i8, ptr %0, i64 10892
  %13 = load i32, ptr %12, align 4, !tbaa !72
  %14 = getelementptr inbounds nuw i8, ptr %0, i64 10900
  %15 = load i32, ptr %14, align 4, !tbaa !76
  %16 = sub nsw i32 %13, %15
  %17 = getelementptr inbounds nuw i8, ptr %0, i64 10880
  %18 = load i32, ptr %17, align 16, !tbaa !73
  %19 = getelementptr inbounds nuw i8, ptr %0, i64 10884
  %20 = load i32, ptr %19, align 4, !tbaa !74
  %21 = add nsw i32 %18, %11
  %22 = getelementptr inbounds nuw i8, ptr %0, i64 10728
  %23 = load i32, ptr %22, align 8, !tbaa !48
  %24 = icmp sgt i32 %21, %23
  %25 = sub nsw i32 %23, %11
  %spec.select = select i1 %24, i32 %25, i32 %18
  %26 = add nsw i32 %20, %16
  %27 = getelementptr inbounds nuw i8, ptr %0, i64 10732
  %28 = load i32, ptr %27, align 4, !tbaa !49
  %29 = icmp sgt i32 %26, %28
  %30 = sub nsw i32 %28, %16
  %.076 = select i1 %29, i32 %30, i32 %20
  %31 = tail call i32 @llvm.smin.i32(i32 %11, i32 0)
  %.179 = add nsw i32 %spec.select, %31
  %narrow = mul i32 %31, -4
  %.073.idx = zext i32 %narrow to i64
  %.073 = getelementptr inbounds nuw i8, ptr %5, i64 %.073.idx
  %32 = tail call i32 @llvm.smax.i32(i32 %11, i32 0)
  %narrow90 = mul i32 %32, 3
  %.0.idx = zext i32 %narrow90 to i64
  %.0 = getelementptr inbounds nuw i8, ptr %1, i64 %.0.idx
  %33 = tail call i32 @llvm.smin.i32(i32 %16, i32 0)
  %.177 = add nsw i32 %.076, %33
  %34 = icmp slt i32 %.179, 0
  %35 = icmp slt i32 %.177, 0
  %or.cond = select i1 %34, i1 true, i1 %35
  br i1 %or.cond, label %.loopexit, label %36

36:                                               ; preds = %6
  %37 = icmp slt i32 %16, 0
  br i1 %37, label %38, label %45

38:                                               ; preds = %36
  %39 = getelementptr inbounds nuw i8, ptr %0, i64 10872
  %40 = load i32, ptr %39, align 8, !tbaa !78
  %41 = mul i32 %16, %40
  %42 = sub i32 0, %41
  %43 = sext i32 %42 to i64
  %44 = getelementptr inbounds i8, ptr %.073, i64 %43
  br label %49

45:                                               ; preds = %36
  %46 = mul nsw i32 %16, %2
  %47 = sext i32 %46 to i64
  %48 = getelementptr inbounds i8, ptr %.0, i64 %47
  br label %49

49:                                               ; preds = %45, %38
  %.174 = phi ptr [ %44, %38 ], [ %.073, %45 ]
  %.1 = phi ptr [ %.0, %38 ], [ %48, %45 ]
  %.not97 = icmp eq i32 %.177, 0
  br i1 %.not97, label %.loopexit, label %.preheader.lr.ph

.preheader.lr.ph:                                 ; preds = %49
  %.not98 = icmp eq i32 %.179, 0
  %50 = sext i32 %2 to i64
  %51 = getelementptr inbounds nuw i8, ptr %0, i64 10872
  br i1 %.not98, label %.loopexit, label %.preheader.us.preheader

.preheader.us.preheader:                          ; preds = %.preheader.lr.ph
  %52 = zext nneg i32 %.179 to i64
  br label %.preheader.us

.preheader.us:                                    ; preds = %.preheader.us.preheader, %._crit_edge.us
  %.294.us = phi ptr [ %94, %._crit_edge.us ], [ %.1, %.preheader.us.preheader ]
  %.27593.us = phi ptr [ %97, %._crit_edge.us ], [ %.174, %.preheader.us.preheader ]
  %.08192.us = phi i32 [ %98, %._crit_edge.us ], [ 0, %.preheader.us.preheader ]
  br label %53

53:                                               ; preds = %.preheader.us, %53
  %indvars.iv = phi i64 [ 0, %.preheader.us ], [ %indvars.iv.next, %53 ]
  %54 = shl nsw i64 %indvars.iv, 2
  %55 = getelementptr inbounds nuw i8, ptr %.27593.us, i64 %54
  %56 = load i8, ptr %55, align 1, !tbaa !45
  %57 = mul nuw nsw i64 %indvars.iv, 3
  %58 = getelementptr inbounds nuw i8, ptr %.294.us, i64 %57
  %59 = load i8, ptr %58, align 1, !tbaa !45
  %60 = zext i8 %59 to i32
  %61 = zext i8 %56 to i32
  %62 = sub nuw nsw i32 256, %61
  %63 = mul nuw nsw i32 %62, %60
  %64 = getelementptr inbounds nuw i8, ptr %55, i64 1
  %65 = load i8, ptr %64, align 1, !tbaa !45
  %66 = zext i8 %65 to i32
  %67 = mul nuw nsw i32 %66, %61
  %68 = add nuw nsw i32 %67, %63
  %69 = lshr i32 %68, 8
  %70 = trunc i32 %69 to i8
  store i8 %70, ptr %58, align 1, !tbaa !45
  %71 = getelementptr inbounds nuw i8, ptr %58, i64 1
  %72 = load i8, ptr %71, align 1, !tbaa !45
  %73 = zext i8 %72 to i32
  %74 = mul nuw nsw i32 %62, %73
  %75 = getelementptr inbounds nuw i8, ptr %55, i64 2
  %76 = load i8, ptr %75, align 1, !tbaa !45
  %77 = zext i8 %76 to i32
  %78 = mul nuw nsw i32 %77, %61
  %79 = add nuw nsw i32 %78, %74
  %80 = lshr i32 %79, 8
  %81 = trunc i32 %80 to i8
  store i8 %81, ptr %71, align 1, !tbaa !45
  %82 = getelementptr inbounds nuw i8, ptr %58, i64 2
  %83 = load i8, ptr %82, align 1, !tbaa !45
  %84 = zext i8 %83 to i32
  %85 = mul nuw nsw i32 %62, %84
  %86 = getelementptr inbounds nuw i8, ptr %55, i64 3
  %87 = load i8, ptr %86, align 1, !tbaa !45
  %88 = zext i8 %87 to i32
  %89 = mul nuw nsw i32 %88, %61
  %90 = add nuw nsw i32 %89, %85
  %91 = lshr i32 %90, 8
  %92 = trunc i32 %91 to i8
  store i8 %92, ptr %82, align 1, !tbaa !45
  %indvars.iv.next = add nuw nsw i64 %indvars.iv, 1
  %93 = icmp samesign ult i64 %indvars.iv.next, %52
  br i1 %93, label %53, label %._crit_edge.us, !llvm.loop !118

._crit_edge.us:                                   ; preds = %53
  %94 = getelementptr inbounds i8, ptr %.294.us, i64 %50
  %95 = load i32, ptr %51, align 8, !tbaa !78
  %96 = sext i32 %95 to i64
  %97 = getelementptr inbounds i8, ptr %.27593.us, i64 %96
  %98 = add nuw nsw i32 %.08192.us, 1
  %99 = icmp slt i32 %98, %.177
  br i1 %99, label %.preheader.us, label %.loopexit, !llvm.loop !119

.loopexit:                                        ; preds = %._crit_edge.us, %.preheader.lr.ph, %49, %6, %3
  ret void
}